target datalayout = "e-m:e-p270:32:32-p271:32:32-p272:64:64-i64:64-i128:128-f80:128-n8:16:32:64-S128"
target triple = "x86_64-pc-linux-gnu"

%struct.ProbContext = type { [4 x [9 x i8]], [10 x [9 x i8]], [4 x [2 x i8]], [7 x [3 x i8]], [4 x i8], [5 x i8], [5 x [2 x i8]], [5 x i8], [2 x [3 x i8]], [2 x [2 x i8]], [2 x i8], [3 x i8], [3 x i8], [2 x %struct.anon.8], [4 x [4 x [3 x i8]]] }
%struct.anon.8 = type { i8, [10 x i8], i8, [10 x i8], [2 x [3 x i8]], [3 x i8], i8, i8 }
%struct.AVCodecContext = type { ptr, i32, i32, ptr, i32, i32, ptr, ptr, ptr, i64, i32, i32, ptr, i32, %struct.AVRational, %struct.AVRational, %struct.AVRational, i32, i32, i32, i32, i32, %struct.AVRational, i32, i32, i32, i32, i32, i32, i32, i32, i32, i32, i32, ptr, ptr, i32, float, float, float, float, float, float, float, float, float, i32, i32, i32, i32, i32, i32, i32, i32, i32, i32, i32, i32, ptr, ptr, ptr, i32, i32, i32, i32, i32, i32, i32, i32, i32, i32, %struct.AVChannelLayout, i32, i32, i32, i32, i32, i32, i32, i32, ptr, i32, i32, i32, float, float, i32, i32, i32, i32, i32, ptr, i64, i64, float, float, i32, i32, ptr, ptr, i32, i32, i32, i32, i32, ptr, ptr, ptr, ptr, i32, i32, [8 x i64], i32, i32, i32, i32, i32, i32, i32, ptr, ptr, i32, i32, i32, i32, i32, i32, i32, i32, i32, i32, ptr, ptr, i32, i32, ptr, ptr, ptr, ptr, i32, i32, i64, i32, i32, i64, ptr, i64, ptr, i32, ptr, i32 }
%struct.AVRational = type { i32, i32 }
%struct.AVChannelLayout = type { i32, i32, %union.anon.0, ptr }
%union.anon.0 = type { i64 }
%struct.VP9Context = type { %struct.VP9SharedContext, ptr, %struct.VP9DSPContext, %struct.VideoDSPContext, %struct.GetBitContext, %struct.VPXRangeCoder, i32, i32, %union.pthread_mutex_t, %union.pthread_cond_t, ptr, i32, i8, i8, i8, i8, i8, i8, i32, i32, i32, i32, i32, i32, i32, i32, i32, [8 x %struct.ProgressFrame], %struct.anon.6, [4 x %struct.anon.7], %struct.anon.9, ptr, ptr, ptr, [2 x ptr], ptr, ptr, ptr, ptr, ptr, ptr, ptr, ptr, [3 x ptr], ptr, i32, [3 x [2 x i16]], [3 x [2 x i8]], ptr, i32 }
%struct.VP9SharedContext = type { %struct.VP9BitstreamHeader, [8 x %struct.ProgressFrame], [4 x %struct.VP9Frame] }
%struct.VP9BitstreamHeader = type { i8, i8, i8, i8, i8, i8, i8, i8, i8, i32, i8, i8, i8, i8, i8, [3 x i8], [3 x i8], i8, [2 x i8], %struct.anon, %struct.anon.1, i8, i8, i8, i8, i8, %struct.anon.2, i32, i32, %struct.anon.4, i32, i32 }
%struct.anon = type { i8, i8 }
%struct.anon.1 = type { i8, i8, [2 x i8], [4 x i8] }
%struct.anon.2 = type { i8, i8, i8, i8, [7 x i8], [3 x i8], [8 x %struct.anon.3] }
%struct.anon.3 = type { i8, i8, i8, i8, i8, i16, i8, [2 x [2 x i16]], [4 x [2 x i8]] }
%struct.anon.4 = type { i32, i32, i32, i32 }
%struct.VP9Frame = type { %struct.ProgressFrame, ptr, ptr, ptr, i32, ptr }
%struct.ProgressFrame = type { ptr, ptr }
%struct.VP9DSPContext = type { [4 x [15 x ptr]], [5 x [4 x ptr]], [3 x [2 x ptr]], [2 x ptr], [2 x [2 x [2 x ptr]]], [5 x [4 x [2 x [2 x [2 x ptr]]]]], [5 x [4 x [2 x ptr]]] }
%struct.VideoDSPContext = type { ptr, ptr }
%struct.GetBitContext = type { ptr, ptr, i32, i32, i32 }
%struct.VPXRangeCoder = type { i32, i32, ptr, ptr, i32, i32 }
%union.pthread_mutex_t = type { %struct.__pthread_mutex_s }
%struct.__pthread_mutex_s = type { i32, i32, i32, i32, i32, i16, i16, %struct.__pthread_internal_list }
%struct.__pthread_internal_list = type { ptr, ptr }
%union.pthread_cond_t = type { %struct.__pthread_cond_s }
%struct.__pthread_cond_s = type { %union.__atomic_wide_counter, %union.__atomic_wide_counter, [2 x i32], [2 x i32], i32, i32, [2 x i32] }
%union.__atomic_wide_counter = type { i64 }
%struct.anon.6 = type { [64 x i8], [64 x i8] }
%struct.anon.7 = type { %struct.ProbContext, [4 x [2 x [2 x [6 x [6 x [3 x i8]]]]]] }
%struct.anon.9 = type { %struct.ProbContext, [4 x [2 x [2 x [6 x [6 x [11 x i8]]]]]] }
%struct.AVFrame = type { [8 x ptr], [8 x i32], ptr, i32, i32, i32, i32, i32, %struct.AVRational, i64, i64, %struct.AVRational, i32, ptr, i32, i32, [8 x ptr], ptr, i32, ptr, i32, i32, i32, i32, i32, i32, i32, i64, ptr, i32, ptr, ptr, i64, i64, i64, i64, ptr, %struct.AVChannelLayout, i64 }
%struct.VP9Filter = type { [64 x i8], [2 x [2 x [8 x [4 x i8]]]] }

; Function Attrs: nounwind uwtable
define internal void @vp9_await_tile_progress(ptr noundef %0, i32 noundef %1, i32 noundef %2) #0 {
  %4 = alloca ptr, align 8
  %5 = alloca i32, align 4
  %6 = alloca i32, align 4
  %7 = alloca i32, align 4
  %8 = alloca i32, align 4
  store ptr %0, ptr %4, align 8, !tbaa !29
  store i32 %1, ptr %5, align 4, !tbaa !31
  store i32 %2, ptr %6, align 4, !tbaa !31
  %9 = load ptr, ptr %4, align 8, !tbaa !29
  %10 = getelementptr inbounds nuw %struct.VP9Context, ptr %9, i32 0, i32 10
  %11 = load ptr, ptr %10, align 8, !tbaa !138
  %12 = load i32, ptr %5, align 4, !tbaa !31
  %13 = sext i32 %12 to i64
  %14 = getelementptr inbounds i32, ptr %11, i64 %13
  %15 = load atomic i32, ptr %14 acquire, align 4
  store i32 %15, ptr %7, align 4
  %16 = load i32, ptr %7, align 4, !tbaa !31
  %17 = load i32, ptr %6, align 4, !tbaa !31
  %18 = icmp sge i32 %16, %17
  br i1 %18, label %19, label %20

19:                                               ; preds = %3
  br label %45

20:                                               ; preds = %3
  %21 = load ptr, ptr %4, align 8, !tbaa !29
  %22 = getelementptr inbounds nuw %struct.VP9Context, ptr %21, i32 0, i32 8
  %23 = call i32 @pthread_mutex_lock(ptr noundef %22) #11
  br label %24

24:                                               ; preds = %35, %20
  %25 = load ptr, ptr %4, align 8, !tbaa !29
  %26 = getelementptr inbounds nuw %struct.VP9Context, ptr %25, i32 0, i32 10
  %27 = load ptr, ptr %26, align 8, !tbaa !138
  %28 = load i32, ptr %5, align 4, !tbaa !31
  %29 = sext i32 %28 to i64
  %30 = getelementptr inbounds i32, ptr %27, i64 %29
  %31 = load atomic i32, ptr %30 monotonic, align 4
  store i32 %31, ptr %8, align 4
  %32 = load i32, ptr %8, align 4, !tbaa !31
  %33 = load i32, ptr %6, align 4, !tbaa !31
  %34 = icmp ne i32 %32, %33
  br i1 %34, label %35, label %41

35:                                               ; preds = %24
  %36 = load ptr, ptr %4, align 8, !tbaa !29
  %37 = getelementptr inbounds nuw %struct.VP9Context, ptr %36, i32 0, i32 9
  %38 = load ptr, ptr %4, align 8, !tbaa !29
  %39 = getelementptr inbounds nuw %struct.VP9Context, ptr %38, i32 0, i32 8
  %40 = call i32 @pthread_cond_wait(ptr noundef %37, ptr noundef %39)
  br label %24, !llvm.loop !337

41:                                               ; preds = %24
  %42 = load ptr, ptr %4, align 8, !tbaa !29
  %43 = getelementptr inbounds nuw %struct.VP9Context, ptr %42, i32 0, i32 8
  %44 = call i32 @pthread_mutex_unlock(ptr noundef %43) #11
  br label %45

45:                                               ; preds = %41, %19
  ret void
}

; Function Attrs: alwaysinline nounwind uwtable
define internal i32 @loopfilter_proc(ptr noundef %0) #8 {
  %2 = alloca ptr, align 8
  %3 = alloca ptr, align 8
  %4 = alloca i64, align 8
  %5 = alloca i64, align 8
  %6 = alloca i64, align 8
  %7 = alloca i64, align 8
  %8 = alloca ptr, align 8
  %9 = alloca i32, align 4
  %10 = alloca i32, align 4
  %11 = alloca i32, align 4
  %12 = alloca ptr, align 8
  store ptr %0, ptr %2, align 8, !tbaa !4
  call void @llvm.lifetime.start.p0(i64 8, ptr %3) #11
  %13 = load ptr, ptr %2, align 8, !tbaa !4
  %14 = getelementptr inbounds nuw %struct.AVCodecContext, ptr %13, i32 0, i32 6
  %15 = load ptr, ptr %14, align 8, !tbaa !9
  store ptr %15, ptr %3, align 8, !tbaa !29
  call void @llvm.lifetime.start.p0(i64 8, ptr %4) #11
  call void @llvm.lifetime.start.p0(i64 8, ptr %5) #11
  call void @llvm.lifetime.start.p0(i64 8, ptr %6) #11
  call void @llvm.lifetime.start.p0(i64 8, ptr %7) #11
  call void @llvm.lifetime.start.p0(i64 8, ptr %8) #11
  call void @llvm.lifetime.start.p0(i64 4, ptr %9) #11
  %16 = load ptr, ptr %3, align 8, !tbaa !29
  %17 = getelementptr inbounds nuw %struct.VP9Context, ptr %16, i32 0, i32 16
  %18 = load i8, ptr %17, align 8, !tbaa !63
  %19 = zext i8 %18 to i32
  store i32 %19, ptr %9, align 4, !tbaa !31
  call void @llvm.lifetime.start.p0(i64 4, ptr %10) #11
  call void @llvm.lifetime.start.p0(i64 4, ptr %11) #11
  call void @llvm.lifetime.start.p0(i64 8, ptr %12) #11
  %20 = load ptr, ptr %3, align 8, !tbaa !29
  %21 = getelementptr inbounds nuw %struct.VP9Context, ptr %20, i32 0, i32 0
  %22 = getelementptr inbounds nuw %struct.VP9SharedContext, ptr %21, i32 0, i32 2
  %23 = getelementptr inbounds [4 x %struct.VP9Frame], ptr %22, i64 0, i64 0
  %24 = getelementptr inbounds nuw %struct.VP9Frame, ptr %23, i32 0, i32 0
  %25 = getelementptr inbounds nuw %struct.ProgressFrame, ptr %24, i32 0, i32 0
  %26 = load ptr, ptr %25, align 8, !tbaa !100
  store ptr %26, ptr %12, align 8, !tbaa !73
  %27 = load ptr, ptr %12, align 8, !tbaa !73
  %28 = getelementptr inbounds nuw %struct.AVFrame, ptr %27, i32 0, i32 1
  %29 = getelementptr inbounds [8 x i32], ptr %28, i64 0, i64 0
  %30 = load i32, ptr %29, align 8, !tbaa !31
  %31 = sext i32 %30 to i64
  store i64 %31, ptr %6, align 8, !tbaa !158
  %32 = load ptr, ptr %12, align 8, !tbaa !73
  %33 = getelementptr inbounds nuw %struct.AVFrame, ptr %32, i32 0, i32 1
  %34 = getelementptr inbounds [8 x i32], ptr %33, i64 0, i64 1
  %35 = load i32, ptr %34, align 4, !tbaa !31
  %36 = sext i32 %35 to i64
  store i64 %36, ptr %7, align 8, !tbaa !158
  store i32 0, ptr %11, align 4, !tbaa !31
  br label %37

37:                                               ; preds = %122, %1
  %38 = load i32, ptr %11, align 4, !tbaa !31
  %39 = load ptr, ptr %3, align 8, !tbaa !29
  %40 = getelementptr inbounds nuw %struct.VP9Context, ptr %39, i32 0, i32 24
  %41 = load i32, ptr %40, align 4, !tbaa !137
  %42 = icmp ult i32 %38, %41
  br i1 %42, label %43, label %125

43:                                               ; preds = %37
  %44 = load ptr, ptr %3, align 8, !tbaa !29
  %45 = load i32, ptr %11, align 4, !tbaa !31
  %46 = load ptr, ptr %3, align 8, !tbaa !29
  %47 = getelementptr inbounds nuw %struct.VP9Context, ptr %46, i32 0, i32 0
  %48 = getelementptr inbounds nuw %struct.VP9SharedContext, ptr %47, i32 0, i32 0
  %49 = getelementptr inbounds nuw %struct.VP9BitstreamHeader, ptr %48, i32 0, i32 29
  %50 = getelementptr inbounds nuw %struct.anon.4, ptr %49, i32 0, i32 2
  %51 = load i32, ptr %50, align 4, !tbaa !157
  call void @vp9_await_tile_progress(ptr noundef %44, i32 noundef %45, i32 noundef %51)
  %52 = load ptr, ptr %3, align 8, !tbaa !29
  %53 = getelementptr inbounds nuw %struct.VP9Context, ptr %52, i32 0, i32 0
  %54 = getelementptr inbounds nuw %struct.VP9SharedContext, ptr %53, i32 0, i32 0
  %55 = getelementptr inbounds nuw %struct.VP9BitstreamHeader, ptr %54, i32 0, i32 19
  %56 = getelementptr inbounds nuw %struct.anon, ptr %55, i32 0, i32 0
  %57 = load i8, ptr %56, align 2, !tbaa !186
  %58 = icmp ne i8 %57, 0
  br i1 %58, label %59, label %121

59:                                               ; preds = %43
  %60 = load i64, ptr %6, align 8, !tbaa !158
  %61 = mul nsw i64 %60, 64
  %62 = load i32, ptr %11, align 4, !tbaa !31
  %63 = sext i32 %62 to i64
  %64 = mul nsw i64 %61, %63
  store i64 %64, ptr %5, align 8, !tbaa !158
  %65 = load i64, ptr %7, align 8, !tbaa !158
  %66 = mul nsw i64 %65, 64
  %67 = load ptr, ptr %3, align 8, !tbaa !29
  %68 = getelementptr inbounds nuw %struct.VP9Context, ptr %67, i32 0, i32 13
  %69 = load i8, ptr %68, align 1, !tbaa !58
  %70 = zext i8 %69 to i32
  %71 = zext i32 %70 to i64
  %72 = ashr i64 %66, %71
  %73 = load i32, ptr %11, align 4, !tbaa !31
  %74 = sext i32 %73 to i64
  %75 = mul nsw i64 %72, %74
  store i64 %75, ptr %4, align 8, !tbaa !158
  %76 = load ptr, ptr %3, align 8, !tbaa !29
  %77 = getelementptr inbounds nuw %struct.VP9Context, ptr %76, i32 0, i32 44
  %78 = load ptr, ptr %77, align 8, !tbaa !284
  %79 = load ptr, ptr %3, align 8, !tbaa !29
  %80 = getelementptr inbounds nuw %struct.VP9Context, ptr %79, i32 0, i32 23
  %81 = load i32, ptr %80, align 8, !tbaa !122
  %82 = load i32, ptr %11, align 4, !tbaa !31
  %83 = mul i32 %81, %82
  %84 = zext i32 %83 to i64
  %85 = getelementptr inbounds nuw %struct.VP9Filter, ptr %78, i64 %84
  store ptr %85, ptr %8, align 8, !tbaa !285
  store i32 0, ptr %10, align 4, !tbaa !31
  br label %86

86:                                               ; preds = %100, %59
  %87 = load i32, ptr %10, align 4, !tbaa !31
  %88 = load ptr, ptr %3, align 8, !tbaa !29
  %89 = getelementptr inbounds nuw %struct.VP9Context, ptr %88, i32 0, i32 26
  %90 = load i32, ptr %89, align 4, !tbaa !118
  %91 = icmp ult i32 %87, %90
  br i1 %91, label %92, label %120

92:                                               ; preds = %86
  %93 = load ptr, ptr %2, align 8, !tbaa !4
  %94 = load ptr, ptr %8, align 8, !tbaa !285
  %95 = load i32, ptr %11, align 4, !tbaa !31
  %96 = shl i32 %95, 3
  %97 = load i32, ptr %10, align 4, !tbaa !31
  %98 = load i64, ptr %5, align 8, !tbaa !158
  %99 = load i64, ptr %4, align 8, !tbaa !158
  call void @ff_vp9_loopfilter_sb(ptr noundef %93, ptr noundef %94, i32 noundef %96, i32 noundef %97, i64 noundef %98, i64 noundef %99)
  br label %100

100:                                              ; preds = %92
  %101 = load i32, ptr %10, align 4, !tbaa !31
  %102 = add nsw i32 %101, 8
  store i32 %102, ptr %10, align 4, !tbaa !31
  %103 = load i32, ptr %9, align 4, !tbaa !31
  %104 = mul nsw i32 64, %103
  %105 = sext i32 %104 to i64
  %106 = load i64, ptr %5, align 8, !tbaa !158
  %107 = add nsw i64 %106, %105
  store i64 %107, ptr %5, align 8, !tbaa !158
  %108 = load i32, ptr %9, align 4, !tbaa !31
  %109 = mul nsw i32 64, %108
  %110 = load ptr, ptr %3, align 8, !tbaa !29
  %111 = getelementptr inbounds nuw %struct.VP9Context, ptr %110, i32 0, i32 12
  %112 = load i8, ptr %111, align 4, !tbaa !59
  %113 = zext i8 %112 to i32
  %114 = ashr i32 %109, %113
  %115 = sext i32 %114 to i64
  %116 = load i64, ptr %4, align 8, !tbaa !158
  %117 = add nsw i64 %116, %115
  store i64 %117, ptr %4, align 8, !tbaa !158
  %118 = load ptr, ptr %8, align 8, !tbaa !285
  %119 = getelementptr inbounds nuw %struct.VP9Filter, ptr %118, i32 1
  store ptr %119, ptr %8, align 8, !tbaa !285
  br label %86, !llvm.loop !290

120:                                              ; preds = %86
  br label %121

121:                                              ; preds = %120, %43
  br label %122

122:                                              ; preds = %121
  %123 = load i32, ptr %11, align 4, !tbaa !31
  %124 = add nsw i32 %123, 1
  store i32 %124, ptr %11, align 4, !tbaa !31
  br label %37, !llvm.loop !291

125:                                              ; preds = %37
  call void @llvm.lifetime.end.p0(i64 8, ptr %12) #11
  call void @llvm.lifetime.end.p0(i64 4, ptr %11) #11
  call void @llvm.lifetime.end.p0(i64 4, ptr %10) #11
  call void @llvm.lifetime.end.p0(i64 4, ptr %9) #11
  call void @llvm.lifetime.end.p0(i64 8, ptr %8) #11
  call void @llvm.lifetime.end.p0(i64 8, ptr %7) #11
  call void @llvm.lifetime.end.p0(i64 8, ptr %6) #11
  call void @llvm.lifetime.end.p0(i64 8, ptr %5) #11
  call void @llvm.lifetime.end.p0(i64 8, ptr %4) #11
  call void @llvm.lifetime.end.p0(i64 8, ptr %3) #11
  ret i32 0
}