; Function Attrs: alwaysinline nounwind uwtable
define internal noundef i32 @loopfilter_proc(ptr noundef %0) #6 {
  %2 = getelementptr inbounds nuw i8, ptr %0, i64 32
  %3 = load ptr, ptr %2, align 8, !tbaa !4
  %4 = getelementptr inbounds nuw i8, ptr %3, i64 3252
  %5 = load i32, ptr %4, align 4, !tbaa !94
  %.not45 = icmp eq i32 %5, 0
  br i1 %.not45, label %._crit_edge, label %.lr.ph44

.lr.ph44:                                         ; preds = %1
  %6 = getelementptr inbounds nuw i8, ptr %3, i64 432
  %7 = load ptr, ptr %6, align 8, !tbaa !95
  %8 = getelementptr inbounds nuw i8, ptr %7, i64 68
  %9 = load i32, ptr %8, align 4, !tbaa !81
  %10 = sext i32 %9 to i64
  %11 = getelementptr inbounds nuw i8, ptr %7, i64 64
  %12 = load i32, ptr %11, align 8, !tbaa !81
  %13 = sext i32 %12 to i64
  %14 = getelementptr inbounds nuw i8, ptr %3, i64 3224
  %15 = load i8, ptr %14, align 8, !tbaa !67
  %16 = zext i8 %15 to i32
  %17 = getelementptr inbounds nuw i8, ptr %3, i64 284
  %18 = getelementptr inbounds nuw i8, ptr %3, i64 3208
  %19 = getelementptr inbounds nuw i8, ptr %3, i64 3120
  %20 = getelementptr inbounds nuw i8, ptr %3, i64 3160
  %21 = getelementptr inbounds nuw i8, ptr %3, i64 30
  %22 = shl nsw i64 %13, 6
  %23 = shl nsw i64 %10, 6
  %24 = getelementptr inbounds nuw i8, ptr %3, i64 3221
  %25 = getelementptr inbounds nuw i8, ptr %3, i64 18456
  %26 = getelementptr inbounds nuw i8, ptr %3, i64 3248
  %27 = getelementptr inbounds nuw i8, ptr %3, i64 3260
  %28 = shl nuw nsw i32 %16, 6
  %29 = zext nneg i32 %28 to i64
  %30 = getelementptr inbounds nuw i8, ptr %3, i64 3220
  br label %31

31:                                               ; preds = %.lr.ph44, %.loopexit
  %indvars.iv = phi i64 [ 0, %.lr.ph44 ], [ %indvars.iv.next, %.loopexit ]
  %32 = load i32, ptr %17, align 4, !tbaa !155
  %33 = load ptr, ptr %18, align 8, !tbaa !147
  %34 = getelementptr inbounds nuw i32, ptr %33, i64 %indvars.iv
  %35 = load atomic i32, ptr %34 acquire, align 4
  %.not.i = icmp slt i32 %35, %32
  br i1 %.not.i, label %36, label %vp9_await_tile_progress.exit

36:                                               ; preds = %31
  %37 = tail call i32 @pthread_mutex_lock(ptr noundef nonnull %19) #12
  %38 = load ptr, ptr %18, align 8, !tbaa !147
  %39 = getelementptr inbounds nuw i32, ptr %38, i64 %indvars.iv
  %40 = load atomic i32, ptr %39 monotonic, align 4
  %.not1112.i = icmp eq i32 %40, %32
  br i1 %.not1112.i, label %._crit_edge.i, label %.lr.ph.i

.lr.ph.i:                                         ; preds = %36, %.lr.ph.i
  %41 = tail call i32 @pthread_cond_wait(ptr noundef nonnull %20, ptr noundef nonnull %19) #12
  %42 = load ptr, ptr %18, align 8, !tbaa !147
  %43 = getelementptr inbounds nuw i32, ptr %42, i64 %indvars.iv
  %44 = load atomic i32, ptr %43 monotonic, align 4
  %.not11.i = icmp eq i32 %44, %32
  br i1 %.not11.i, label %._crit_edge.i, label %.lr.ph.i, !llvm.loop !291

._crit_edge.i:                                    ; preds = %.lr.ph.i, %36
  %45 = tail call i32 @pthread_mutex_unlock(ptr noundef nonnull %19) #12
  br label %vp9_await_tile_progress.exit

vp9_await_tile_progress.exit:                     ; preds = %31, %._crit_edge.i
  %46 = load i8, ptr %21, align 2, !tbaa !175
  %.not = icmp eq i8 %46, 0
  br i1 %.not, label %.loopexit, label %47

47:                                               ; preds = %vp9_await_tile_progress.exit
  %48 = load i32, ptr %27, align 4, !tbaa !111
  %.not46 = icmp eq i32 %48, 0
  br i1 %.not46, label %.loopexit, label %.lr.ph

.lr.ph:                                           ; preds = %47
  %49 = load ptr, ptr %25, align 8, !tbaa !168
  %50 = load i32, ptr %26, align 8, !tbaa !93
  %51 = trunc nuw nsw i64 %indvars.iv to i32
  %52 = mul i32 %50, %51
  %53 = zext i32 %52 to i64
  %54 = getelementptr inbounds nuw %struct.VP9Filter, ptr %49, i64 %53
  %55 = load i8, ptr %24, align 1, !tbaa !62
  %56 = zext nneg i8 %55 to i64
  %57 = ashr i64 %23, %56
  %58 = mul nsw i64 %57, %indvars.iv
  %59 = mul nsw i64 %22, %indvars.iv
  %60 = shl i32 %51, 3
  br label %61

61:                                               ; preds = %.lr.ph, %61
  %.041 = phi i64 [ %58, %.lr.ph ], [ %68, %61 ]
  %.03540 = phi i32 [ 0, %.lr.ph ], [ %62, %61 ]
  %.03639 = phi i64 [ %59, %.lr.ph ], [ %63, %61 ]
  %.03738 = phi ptr [ %54, %.lr.ph ], [ %69, %61 ]
  tail call void @ff_vp9_loopfilter_sb(ptr noundef %0, ptr noundef %.03738, i32 noundef %60, i32 noundef %.03540, i64 noundef %.03639, i64 noundef %.041) #12
  %62 = add nuw nsw i32 %.03540, 8
  %63 = add nsw i64 %.03639, %29
  %64 = load i8, ptr %30, align 4, !tbaa !63
  %65 = zext nneg i8 %64 to i32
  %66 = lshr i32 %28, %65
  %67 = zext nneg i32 %66 to i64
  %68 = add nsw i64 %.041, %67
  %69 = getelementptr inbounds nuw i8, ptr %.03738, i64 192
  %70 = load i32, ptr %27, align 4, !tbaa !111
  %71 = icmp ult i32 %62, %70
  br i1 %71, label %61, label %.loopexit, !llvm.loop !292

.loopexit:                                        ; preds = %61, %47, %vp9_await_tile_progress.exit
  %indvars.iv.next = add nuw nsw i64 %indvars.iv, 1
  %72 = load i32, ptr %4, align 4, !tbaa !94
  %73 = zext i32 %72 to i64
  %74 = icmp samesign ult i64 %indvars.iv.next, %73
  br i1 %74, label %31, label %._crit_edge, !llvm.loop !293

._crit_edge:                                      ; preds = %.loopexit, %1
  ret i32 0
}